; Function Attrs: nounwind uwtable
define noundef ptr @Gia_ManGenSorter(i32 noundef %0) local_unnamed_addr #0 {
  %2 = shl nuw i32 1, %0
  %3 = shl i32 %0, %0
  %4 = add nsw i32 %0, -1
  %5 = mul nsw i32 %3, %4
  %6 = sdiv i32 %5, 4
  %7 = add nsw i32 %6, %2
  %8 = shl i32 %7, 1
  %9 = tail call noalias dereferenceable_or_null(16) ptr @malloc(i64 noundef 16) #23
  %10 = add i32 %2, -1
  %spec.store.select.i = tail call i32 @llvm.umax.i32(i32 %2, i32 16)
  %11 = getelementptr inbounds nuw i8, ptr %9, i64 4
  store i32 0, ptr %11, align 4, !tbaa !41
  store i32 %spec.store.select.i, ptr %9, align 8, !tbaa !43
  %12 = sext i32 %spec.store.select.i to i64
  %13 = shl nsw i64 %12, 2
  %14 = tail call noalias ptr @malloc(i64 noundef %13) #23
  %15 = getelementptr inbounds nuw i8, ptr %9, i64 8
  store ptr %14, ptr %15, align 8, !tbaa !44
  %16 = shl i32 2, %0
  %17 = add i32 %16, -1
  %18 = add i32 %17, %2
  %19 = add i32 %18, %8
  %20 = tail call ptr @Gia_ManStart(i32 noundef %19) #21
  %21 = tail call noalias dereferenceable_or_null(7) ptr @malloc(i64 noundef 7) #23
  tail call void @llvm.memcpy.p0.p0.i64(ptr noundef nonnull align 1 dereferenceable(7) %21, ptr noundef nonnull align 1 dereferenceable(7) @.str.74, i64 7, i1 false) #21
  store ptr %21, ptr %20, align 8, !tbaa !71
  %.not = icmp eq i32 %0, 31
  br i1 %.not, label %._crit_edge.thread, label %.lr.ph.preheader

._crit_edge.thread:                               ; preds = %1
  tail call fastcc void @Gia_ManGenSorterConstrRange(ptr noundef nonnull %20, ptr noundef %14, i32 noundef 0, i32 noundef %10)
  br label %._crit_edge31

.lr.ph.preheader:                                 ; preds = %1
  %smax = tail call i32 @llvm.smax.i32(i32 %2, i32 1)
  br label %.lr.ph

.lr.ph:                                           ; preds = %.lr.ph.preheader, %Vec_IntPush.exit
  %22 = phi ptr [ %.pre.i36, %Vec_IntPush.exit ], [ %14, %.lr.ph.preheader ]
  %.027 = phi i32 [ %45, %Vec_IntPush.exit ], [ 0, %.lr.ph.preheader ]
  %23 = tail call fastcc i32 @Gia_ManAppendCi(ptr noundef nonnull %20)
  %24 = load i32, ptr %11, align 4, !tbaa !41
  %25 = load i32, ptr %9, align 8, !tbaa !43
  %26 = icmp eq i32 %24, %25
  br i1 %26, label %27, label %Vec_IntPush.exit

27:                                               ; preds = %.lr.ph
  %28 = icmp slt i32 %24, 16
  br i1 %28, label %29, label %34

29:                                               ; preds = %27
  %.not9.i.i = icmp eq ptr %22, null
  br i1 %.not9.i.i, label %32, label %30

30:                                               ; preds = %29
  %31 = tail call dereferenceable_or_null(64) ptr @realloc(ptr noundef nonnull %22, i64 noundef 64) #22
  br label %Vec_IntPush.exit.sink.split

32:                                               ; preds = %29
  %33 = tail call noalias dereferenceable_or_null(64) ptr @malloc(i64 noundef 64) #23
  br label %Vec_IntPush.exit.sink.split

34:                                               ; preds = %27
  %35 = shl nuw nsw i32 %24, 1
  %.not9.i9.i = icmp eq ptr %22, null
  %36 = zext nneg i32 %35 to i64
  %37 = shl nuw nsw i64 %36, 2
  br i1 %.not9.i9.i, label %40, label %38

38:                                               ; preds = %34
  %39 = tail call ptr @realloc(ptr noundef nonnull %22, i64 noundef %37) #22
  br label %Vec_IntPush.exit.sink.split

40:                                               ; preds = %34
  %41 = tail call noalias ptr @malloc(i64 noundef %37) #23
  br label %Vec_IntPush.exit.sink.split

Vec_IntPush.exit.sink.split:                      ; preds = %38, %40, %30, %32
  %.sink44 = phi ptr [ %31, %30 ], [ %33, %32 ], [ %39, %38 ], [ %41, %40 ]
  %.sink = phi i32 [ 16, %30 ], [ 16, %32 ], [ %35, %38 ], [ %35, %40 ]
  store ptr %.sink44, ptr %15, align 8, !tbaa !44
  store i32 %.sink, ptr %9, align 8, !tbaa !43
  br label %Vec_IntPush.exit

Vec_IntPush.exit:                                 ; preds = %Vec_IntPush.exit.sink.split, %.lr.ph
  %.pre.i36 = phi ptr [ %22, %.lr.ph ], [ %.sink44, %Vec_IntPush.exit.sink.split ]
  %42 = add nsw i32 %24, 1
  store i32 %42, ptr %11, align 4, !tbaa !41
  %43 = sext i32 %24 to i64
  %44 = getelementptr inbounds i32, ptr %.pre.i36, i64 %43
  store i32 %23, ptr %44, align 4, !tbaa !19
  %45 = add nuw nsw i32 %.027, 1
  %exitcond.not = icmp eq i32 %45, %smax
  br i1 %exitcond.not, label %._crit_edge, label %.lr.ph, !llvm.loop !154

._crit_edge:                                      ; preds = %Vec_IntPush.exit
  tail call fastcc void @Gia_ManGenSorterConstrRange(ptr noundef nonnull %20, ptr noundef nonnull %.pre.i36, i32 noundef 0, i32 noundef %10)
  %smax34 = tail call i32 @llvm.smax.i32(i32 %2, i32 1)
  %wide.trip.count = zext nneg i32 %smax34 to i64
  br label %.lr.ph30

.lr.ph30:                                         ; preds = %._crit_edge, %.lr.ph30
  %indvars.iv = phi i64 [ 0, %._crit_edge ], [ %indvars.iv.next, %.lr.ph30 ]
  %46 = getelementptr inbounds nuw i32, ptr %.pre.i36, i64 %indvars.iv
  %47 = load i32, ptr %46, align 4, !tbaa !19
  tail call fastcc void @Gia_ManAppendCo(ptr noundef nonnull %20, i32 noundef %47)
  %indvars.iv.next = add nuw nsw i64 %indvars.iv, 1
  %exitcond35.not = icmp eq i64 %indvars.iv.next, %wide.trip.count
  br i1 %exitcond35.not, label %._crit_edge31, label %.lr.ph30, !llvm.loop !155

._crit_edge31:                                    ; preds = %.lr.ph30, %._crit_edge.thread
  %.val2640 = phi ptr [ %14, %._crit_edge.thread ], [ %.pre.i36, %.lr.ph30 ]
  %.not.i = icmp eq ptr %.val2640, null
  br i1 %.not.i, label %Vec_IntFree.exit, label %._crit_edge31.thread

._crit_edge31.thread:                             ; preds = %._crit_edge31
  tail call void @free(ptr noundef nonnull %.val2640) #21
  br label %Vec_IntFree.exit

Vec_IntFree.exit:                                 ; preds = %._crit_edge31, %._crit_edge31.thread
  tail call void @free(ptr noundef nonnull %9) #21
  ret ptr %20
}